target datalayout = "e-m:e-p270:32:32-p271:32:32-p272:64:64-i64:64-i128:128-f80:128-n8:16:32:64-S128"
target triple = "x86_64-pc-linux-gnu"

%"struct.boost::urls::url_base::op_t" = type { ptr, ptr, ptr, ptr }

; Function Attrs: mustprogress nounwind uwtable
define void @_ZNK5boost4urls8url_base16check_invariantsEv(ptr noundef nonnull align 8 dereferenceable(216) %0) #2 align 2 {
  %2 = alloca ptr, align 8
  store ptr %0, ptr %2, align 8, !tbaa !7
  ret void
}

; Function Attrs: mustprogress nounwind uwtable
define void @_ZN5boost4urls8url_base4op_tC2ERS1_PNS_4core17basic_string_viewIcEES7_(ptr noundef nonnull align 8 dereferenceable(32) %0, ptr noundef nonnull align 8 dereferenceable(216) %1, ptr noundef %2, ptr noundef %3) unnamed_addr #2 align 2 {
  %5 = alloca ptr, align 8
  %6 = alloca ptr, align 8
  %7 = alloca ptr, align 8
  %8 = alloca ptr, align 8
  store ptr %0, ptr %5, align 8, !tbaa !7
  store ptr %1, ptr %6, align 8, !tbaa !7
  store ptr %2, ptr %7, align 8, !tbaa !7
  store ptr %3, ptr %8, align 8, !tbaa !7
  %9 = load ptr, ptr %5, align 8
  %10 = getelementptr inbounds nuw %"struct.boost::urls::url_base::op_t", ptr %9, i32 0, i32 0
  %11 = load ptr, ptr %6, align 8, !tbaa !7
  store ptr %11, ptr %10, align 8, !tbaa !7
  %12 = getelementptr inbounds nuw %"struct.boost::urls::url_base::op_t", ptr %9, i32 0, i32 1
  %13 = load ptr, ptr %7, align 8, !tbaa !7
  store ptr %13, ptr %12, align 8, !tbaa !19
  %14 = getelementptr inbounds nuw %"struct.boost::urls::url_base::op_t", ptr %9, i32 0, i32 2
  %15 = load ptr, ptr %8, align 8, !tbaa !7
  store ptr %15, ptr %14, align 8, !tbaa !20
  %16 = getelementptr inbounds nuw %"struct.boost::urls::url_base::op_t", ptr %9, i32 0, i32 3
  store ptr null, ptr %16, align 8, !tbaa !16
  %17 = getelementptr inbounds nuw %"struct.boost::urls::url_base::op_t", ptr %9, i32 0, i32 0
  %18 = load ptr, ptr %17, align 8, !tbaa !18
  call void @_ZNK5boost4urls8url_base16check_invariantsEv(ptr noundef nonnull align 8 dereferenceable(216) %18) #9
  ret void
}